target datalayout = "e-m:e-p270:32:32-p271:32:32-p272:64:64-i64:64-i128:128-f80:128-n8:16:32:64-S128"
target triple = "x86_64-pc-linux-gnu"

%class.anon = type { i8 }
%"class.std::__1::vector" = type { ptr, ptr, %"class.std::__1::__compressed_pair" }
%"class.std::__1::__compressed_pair" = type { %"struct.std::__1::__compressed_pair_elem" }
%"struct.std::__1::__compressed_pair_elem" = type { ptr }

@__const._ZN3tev11ImageLoader10getLoadersEv.makeLoaders = private unnamed_addr constant %class.anon undef, align 1
@_ZZN3tev11ImageLoader10getLoadersEvE12imageLoaders = internal global %"class.std::__1::vector" zeroinitializer, align 8
@_ZGVZN3tev11ImageLoader10getLoadersEvE12imageLoaders = internal global i64 0, align 8
@__dso_handle = external hidden global i8

; Function Attrs: mustprogress uwtable
define dso_local noundef nonnull align 8 dereferenceable(24) ptr @_ZN3tev11ImageLoader10getLoadersEv() #4 align 2 personality ptr @__gxx_personality_v0 {
  %1 = alloca %class.anon, align 1
  %2 = alloca ptr, align 8
  %3 = alloca i32, align 4
  call void @llvm.memcpy.p0.p0.i64(ptr align 1 %1, ptr align 1 @__const._ZN3tev11ImageLoader10getLoadersEv.makeLoaders, i64 1, i1 false)
  %4 = load atomic i8, ptr @_ZGVZN3tev11ImageLoader10getLoadersEvE12imageLoaders acquire, align 8
  %5 = icmp eq i8 %4, 0
  br i1 %5, label %6, label %12, !prof !5

6:                                                ; preds = %0
  %7 = call i32 @__cxa_guard_acquire(ptr @_ZGVZN3tev11ImageLoader10getLoadersEvE12imageLoaders) #6
  %8 = icmp ne i32 %7, 0
  br i1 %8, label %9, label %12

9:                                                ; preds = %6
  invoke void @"_ZZN3tev11ImageLoader10getLoadersEvENK3$_0clEv"(ptr dead_on_unwind writable sret(%"class.std::__1::vector") align 8 @_ZZN3tev11ImageLoader10getLoadersEvE12imageLoaders, ptr noundef nonnull align 1 dereferenceable(1) %1)
          to label %10 unwind label %13

10:                                               ; preds = %9
  %11 = call i32 @__cxa_atexit(ptr @_ZNSt3__16vectorINS_10unique_ptrIN3tev11ImageLoaderENS_14default_deleteIS3_EEEENS_9allocatorIS6_EEED2B8ne190000Ev, ptr @_ZZN3tev11ImageLoader10getLoadersEvE12imageLoaders, ptr @__dso_handle) #6
  call void @__cxa_guard_release(ptr @_ZGVZN3tev11ImageLoader10getLoadersEvE12imageLoaders) #6
  br label %12

12:                                               ; preds = %10, %6, %0
  ret ptr @_ZZN3tev11ImageLoader10getLoadersEvE12imageLoaders

13:                                               ; preds = %9
  %14 = landingpad { ptr, i32 }
          cleanup
  %15 = extractvalue { ptr, i32 } %14, 0
  store ptr %15, ptr %2, align 8
  %16 = extractvalue { ptr, i32 } %14, 1
  store i32 %16, ptr %3, align 4
  call void @__cxa_guard_abort(ptr @_ZGVZN3tev11ImageLoader10getLoadersEvE12imageLoaders) #6
  br label %17

17:                                               ; preds = %13
  %18 = load ptr, ptr %2, align 8
  %19 = load i32, ptr %3, align 4
  %20 = insertvalue { ptr, i32 } poison, ptr %18, 0
  %21 = insertvalue { ptr, i32 } %20, i32 %19, 1
  resume { ptr, i32 } %21
}